target datalayout = "e-m:e-p270:32:32-p271:32:32-p272:64:64-i64:64-i128:128-f80:128-n8:16:32:64-S128"
target triple = "x86_64-pc-linux-gnu"

@.str = private unnamed_addr constant [2 x i8] c"/\00", align 1
@.str.1 = private unnamed_addr constant [10 x i8] c"/dev/null\00", align 1
@_ZN32pxrInternal_v0_24__pxrReserved__19Arch_nonLockingForkE = external global ptr, align 8

; Function Attrs: mustprogress uwtable
define internal noundef i32 @_ZN32pxrInternal_v0_24__pxrReserved__L14nonLockingForkEv() #0 {
  %1 = alloca i32, align 4
  %2 = load ptr, ptr @_ZN32pxrInternal_v0_24__pxrReserved__19Arch_nonLockingForkE, align 8
  %3 = icmp ne ptr %2, null
  br i1 %3, label %4, label %7

4:                                                ; preds = %0
  %5 = load ptr, ptr @_ZN32pxrInternal_v0_24__pxrReserved__19Arch_nonLockingForkE, align 8
  %6 = call noundef i32 %5()
  store i32 %6, ptr %1, align 4
  br label %9

7:                                                ; preds = %0
  %8 = call i32 @fork() #10
  store i32 %8, ptr %1, align 4
  br label %9

9:                                                ; preds = %7, %4
  %10 = load i32, ptr %1, align 4
  ret i32 %10
}

; Function Attrs: mustprogress uwtable
define noundef zeroext i1 @_ZN32pxrInternal_v0_24__pxrReserved__37Arch_DebuggerRunUnrelatedProcessPosixEPFbPvES0_(ptr noundef %0, ptr noundef %1) #0 {
  %3 = alloca i1, align 1
  %4 = alloca ptr, align 8
  %5 = alloca ptr, align 8
  %6 = alloca [2 x i32], align 4
  %7 = alloca i32, align 4
  %8 = alloca i32, align 4
  %9 = alloca i64, align 8
  %10 = alloca i32, align 4
  %11 = alloca i32, align 4
  %12 = alloca i32, align 4
  %13 = alloca i64, align 8
  %14 = alloca i32, align 4
  store ptr %0, ptr %4, align 8
  store ptr %1, ptr %5, align 8
  %15 = getelementptr inbounds [2 x i32], ptr %6, i64 0, i64 0
  %16 = call i32 @pipe(ptr noundef %15) #10
  %17 = icmp eq i32 %16, -1
  br i1 %17, label %18, label %19

18:                                               ; preds = %2
  store i1 false, ptr %3, align 1
  br label %126

19:                                               ; preds = %2
  %20 = call noundef i32 @_ZN32pxrInternal_v0_24__pxrReserved__L14nonLockingForkEv()
  store i32 %20, ptr %7, align 4
  %21 = load i32, ptr %7, align 4
  %22 = icmp eq i32 %21, -1
  br i1 %22, label %23, label %30

23:                                               ; preds = %19
  %24 = getelementptr inbounds [2 x i32], ptr %6, i64 0, i64 0
  %25 = load i32, ptr %24, align 4
  %26 = call i32 @close(i32 noundef %25)
  %27 = getelementptr inbounds [2 x i32], ptr %6, i64 0, i64 1
  %28 = load i32, ptr %27, align 4
  %29 = call i32 @close(i32 noundef %28)
  store i1 false, ptr %3, align 1
  br label %126

30:                                               ; preds = %19
  %31 = load i32, ptr %7, align 4
  %32 = icmp sgt i32 %31, 0
  br i1 %32, label %33, label %53

33:                                               ; preds = %30
  %34 = getelementptr inbounds [2 x i32], ptr %6, i64 0, i64 1
  %35 = load i32, ptr %34, align 4
  %36 = call i32 @close(i32 noundef %35)
  %37 = getelementptr inbounds [2 x i32], ptr %6, i64 0, i64 0
  %38 = load i32, ptr %37, align 4
  %39 = call i64 @read(i32 noundef %38, ptr noundef %8, i64 noundef 1)
  store i64 %39, ptr %9, align 8
  br label %40

40:                                               ; preds = %43, %33
  %41 = load i64, ptr %9, align 8
  %42 = icmp eq i64 %41, -1
  br i1 %42, label %43, label %47

43:                                               ; preds = %40
  %44 = getelementptr inbounds [2 x i32], ptr %6, i64 0, i64 0
  %45 = load i32, ptr %44, align 4
  %46 = call i64 @read(i32 noundef %45, ptr noundef %8, i64 noundef 1)
  store i64 %46, ptr %9, align 8
  br label %40, !llvm.loop !4

47:                                               ; preds = %40
  %48 = getelementptr inbounds [2 x i32], ptr %6, i64 0, i64 0
  %49 = load i32, ptr %48, align 4
  %50 = call i32 @close(i32 noundef %49)
  %51 = load i64, ptr %9, align 8
  %52 = icmp eq i64 %51, 0
  store i1 %52, ptr %3, align 1
  br label %126

53:                                               ; preds = %30
  %54 = getelementptr inbounds [2 x i32], ptr %6, i64 0, i64 0
  %55 = load i32, ptr %54, align 4
  %56 = call i32 @close(i32 noundef %55)
  %57 = call ptr @signal(i32 noundef 22, ptr noundef inttoptr (i64 1 to ptr)) #10
  %58 = call ptr @signal(i32 noundef 21, ptr noundef inttoptr (i64 1 to ptr)) #10
  %59 = call i32 @setsid() #10
  %60 = icmp eq i32 %59, -1
  br i1 %60, label %61, label %67

61:                                               ; preds = %53
  %62 = call ptr @__errno_location() #11
  %63 = load i32, ptr %62, align 4
  store i32 %63, ptr %10, align 4
  %64 = getelementptr inbounds [2 x i32], ptr %6, i64 0, i64 1
  %65 = load i32, ptr %64, align 4
  %66 = call i64 @write(i32 noundef %65, ptr noundef %10, i64 noundef 4)
  call void @_exit(i32 noundef 1) #12
  unreachable

67:                                               ; preds = %53
  %68 = call ptr @signal(i32 noundef 1, ptr noundef inttoptr (i64 1 to ptr)) #10
  %69 = call noundef i32 @_ZN32pxrInternal_v0_24__pxrReserved__L14nonLockingForkEv()
  store i32 %69, ptr %7, align 4
  %70 = load i32, ptr %7, align 4
  %71 = icmp eq i32 %70, -1
  br i1 %71, label %72, label %78

72:                                               ; preds = %67
  %73 = call ptr @__errno_location() #11
  %74 = load i32, ptr %73, align 4
  store i32 %74, ptr %11, align 4
  %75 = getelementptr inbounds [2 x i32], ptr %6, i64 0, i64 1
  %76 = load i32, ptr %75, align 4
  %77 = call i64 @write(i32 noundef %76, ptr noundef %11, i64 noundef 4)
  call void @_exit(i32 noundef 2) #12
  unreachable

78:                                               ; preds = %67
  %79 = load i32, ptr %7, align 4
  %80 = icmp sgt i32 %79, 0
  br i1 %80, label %81, label %82

81:                                               ; preds = %78
  call void @_exit(i32 noundef 0) #12
  unreachable

82:                                               ; preds = %78
  %83 = getelementptr inbounds [2 x i32], ptr %6, i64 0, i64 1
  %84 = call noundef i32 @_ZN32pxrInternal_v0_24__pxrReserved__17ArchCloseAllFilesEiPKi(i32 noundef 1, ptr noundef %83)
  store i32 %84, ptr %12, align 4
  %85 = load i32, ptr %12, align 4
  %86 = icmp eq i32 %85, -1
  br i1 %86, label %87, label %91

87:                                               ; preds = %82
  %88 = getelementptr inbounds [2 x i32], ptr %6, i64 0, i64 1
  %89 = load i32, ptr %88, align 4
  %90 = call i64 @write(i32 noundef %89, ptr noundef %12, i64 noundef 4)
  call void @_exit(i32 noundef 3) #12
  unreachable

91:                                               ; preds = %82
  %92 = call i32 @chdir(ptr noundef @.str) #10
  store i32 %92, ptr %12, align 4
  %93 = load i32, ptr %12, align 4
  %94 = icmp eq i32 %93, -1
  br i1 %94, label %95, label %99

95:                                               ; preds = %91
  %96 = getelementptr inbounds [2 x i32], ptr %6, i64 0, i64 1
  %97 = load i32, ptr %96, align 4
  %98 = call i64 @write(i32 noundef %97, ptr noundef %12, i64 noundef 4)
  call void @_exit(i32 noundef 4) #12
  unreachable

99:                                               ; preds = %91
  %100 = call i32 @umask(i32 noundef 0) #10
  %101 = call i32 (ptr, i32, ...) @open(ptr noundef @.str.1, i32 noundef 0)
  %102 = call i32 (ptr, i32, ...) @open(ptr noundef @.str.1, i32 noundef 1)
  %103 = call i32 (ptr, i32, ...) @open(ptr noundef @.str.1, i32 noundef 1)
  store i64 1, ptr %13, align 8
  %104 = getelementptr inbounds [2 x i32], ptr %6, i64 0, i64 1
  %105 = load i32, ptr %104, align 4
  %106 = load i64, ptr %13, align 8
  %107 = call i32 (i32, i32, ...) @fcntl(i32 noundef %105, i32 noundef 2, i64 noundef %106)
  %108 = icmp eq i32 %107, -1
  br i1 %108, label %109, label %115

109:                                              ; preds = %99
  %110 = call ptr @__errno_location() #11
  %111 = load i32, ptr %110, align 4
  store i32 %111, ptr %14, align 4
  %112 = getelementptr inbounds [2 x i32], ptr %6, i64 0, i64 1
  %113 = load i32, ptr %112, align 4
  %114 = call i64 @write(i32 noundef %113, ptr noundef %14, i64 noundef 4)
  call void @_exit(i32 noundef 5) #12
  unreachable

115:                                              ; preds = %99
  %116 = load ptr, ptr %4, align 8
  %117 = load ptr, ptr %5, align 8
  %118 = call noundef zeroext i1 %116(ptr noundef %117)
  br i1 %118, label %125, label %119

119:                                              ; preds = %115
  %120 = call ptr @__errno_location() #11
  %121 = load i32, ptr %120, align 4
  store i32 %121, ptr %12, align 4
  %122 = getelementptr inbounds [2 x i32], ptr %6, i64 0, i64 1
  %123 = load i32, ptr %122, align 4
  %124 = call i64 @write(i32 noundef %123, ptr noundef %12, i64 noundef 4)
  call void @_exit(i32 noundef 6) #12
  unreachable

125:                                              ; preds = %115
  call void @_exit(i32 noundef 0) #12
  unreachable

126:                                              ; preds = %47, %23, %18
  %127 = load i1, ptr %3, align 1
  ret i1 %127
}