; Function Attrs: mustprogress uwtable
define noundef zeroext i1 @_ZN32pxrInternal_v0_24__pxrReserved__37Arch_DebuggerRunUnrelatedProcessPosixEPFbPvES0_(ptr noundef readonly captures(none) %0, ptr noundef %1) local_unnamed_addr #0 {
  %3 = alloca [2 x i32], align 4
  %4 = alloca i32, align 4
  %5 = alloca i32, align 4
  %6 = alloca i32, align 4
  %7 = alloca i32, align 4
  %8 = alloca i32, align 4
  %9 = call i32 @pipe(ptr noundef nonnull %3) #17
  %10 = icmp eq i32 %9, -1
  br i1 %10, label %103, label %11

11:                                               ; preds = %2
  %12 = load ptr, ptr @_ZN32pxrInternal_v0_24__pxrReserved__19Arch_nonLockingForkE, align 8
  %.not.i = icmp eq ptr %12, null
  br i1 %.not.i, label %15, label %13

13:                                               ; preds = %11
  %14 = call noundef i32 %12()
  br label %_ZN32pxrInternal_v0_24__pxrReserved__L14nonLockingForkEv.exit

15:                                               ; preds = %11
  %16 = call i32 @fork() #17
  br label %_ZN32pxrInternal_v0_24__pxrReserved__L14nonLockingForkEv.exit

_ZN32pxrInternal_v0_24__pxrReserved__L14nonLockingForkEv.exit: ; preds = %13, %15
  %.0.i = phi i32 [ %14, %13 ], [ %16, %15 ]
  %17 = icmp eq i32 %.0.i, -1
  br i1 %17, label %18, label %24

18:                                               ; preds = %_ZN32pxrInternal_v0_24__pxrReserved__L14nonLockingForkEv.exit
  %19 = load i32, ptr %3, align 4
  %20 = call i32 @close(i32 noundef %19)
  %21 = getelementptr inbounds nuw i8, ptr %3, i64 4
  %22 = load i32, ptr %21, align 4
  %23 = call i32 @close(i32 noundef %22)
  br label %103

24:                                               ; preds = %_ZN32pxrInternal_v0_24__pxrReserved__L14nonLockingForkEv.exit
  %25 = icmp sgt i32 %.0.i, 0
  br i1 %25, label %26, label %39

26:                                               ; preds = %24
  %27 = getelementptr inbounds nuw i8, ptr %3, i64 4
  %28 = load i32, ptr %27, align 4
  %29 = call i32 @close(i32 noundef %28)
  %30 = load i32, ptr %3, align 4
  %31 = call i64 @read(i32 noundef %30, ptr noundef nonnull %4, i64 noundef 1)
  %32 = icmp eq i64 %31, -1
  br i1 %32, label %.lr.ph, label %._crit_edge

.lr.ph:                                           ; preds = %26, %.lr.ph
  %33 = load i32, ptr %3, align 4
  %34 = call i64 @read(i32 noundef %33, ptr noundef nonnull %4, i64 noundef 1)
  %35 = icmp eq i64 %34, -1
  br i1 %35, label %.lr.ph, label %._crit_edge, !llvm.loop !4

._crit_edge:                                      ; preds = %.lr.ph, %26
  %.09.lcssa = phi i64 [ %31, %26 ], [ %34, %.lr.ph ]
  %36 = load i32, ptr %3, align 4
  %37 = call i32 @close(i32 noundef %36)
  %38 = icmp eq i64 %.09.lcssa, 0
  br label %103

39:                                               ; preds = %24
  %40 = load i32, ptr %3, align 4
  %41 = call i32 @close(i32 noundef %40)
  %42 = call ptr @signal(i32 noundef 22, ptr noundef nonnull inttoptr (i64 1 to ptr)) #17
  %43 = call ptr @signal(i32 noundef 21, ptr noundef nonnull inttoptr (i64 1 to ptr)) #17
  %44 = call i32 @setsid() #17
  %45 = icmp eq i32 %44, -1
  br i1 %45, label %46, label %52

46:                                               ; preds = %39
  %47 = tail call ptr @__errno_location() #18
  %48 = load i32, ptr %47, align 4
  store i32 %48, ptr %5, align 4
  %49 = getelementptr inbounds nuw i8, ptr %3, i64 4
  %50 = load i32, ptr %49, align 4
  %51 = call i64 @write(i32 noundef %50, ptr noundef nonnull %5, i64 noundef 4)
  call void @_exit(i32 noundef 1) #19
  unreachable

52:                                               ; preds = %39
  %53 = call ptr @signal(i32 noundef 1, ptr noundef nonnull inttoptr (i64 1 to ptr)) #17
  %54 = load ptr, ptr @_ZN32pxrInternal_v0_24__pxrReserved__19Arch_nonLockingForkE, align 8
  %.not.i12 = icmp eq ptr %54, null
  br i1 %.not.i12, label %57, label %55

55:                                               ; preds = %52
  %56 = call noundef i32 %54()
  br label %_ZN32pxrInternal_v0_24__pxrReserved__L14nonLockingForkEv.exit14

57:                                               ; preds = %52
  %58 = call i32 @fork() #17
  br label %_ZN32pxrInternal_v0_24__pxrReserved__L14nonLockingForkEv.exit14

_ZN32pxrInternal_v0_24__pxrReserved__L14nonLockingForkEv.exit14: ; preds = %55, %57
  %.0.i13 = phi i32 [ %56, %55 ], [ %58, %57 ]
  %59 = icmp eq i32 %.0.i13, -1
  br i1 %59, label %60, label %66

60:                                               ; preds = %_ZN32pxrInternal_v0_24__pxrReserved__L14nonLockingForkEv.exit14
  %61 = tail call ptr @__errno_location() #18
  %62 = load i32, ptr %61, align 4
  store i32 %62, ptr %6, align 4
  %63 = getelementptr inbounds nuw i8, ptr %3, i64 4
  %64 = load i32, ptr %63, align 4
  %65 = call i64 @write(i32 noundef %64, ptr noundef nonnull %6, i64 noundef 4)
  call void @_exit(i32 noundef 2) #19
  unreachable

66:                                               ; preds = %_ZN32pxrInternal_v0_24__pxrReserved__L14nonLockingForkEv.exit14
  %67 = icmp sgt i32 %.0.i13, 0
  br i1 %67, label %68, label %69

68:                                               ; preds = %66
  call void @_exit(i32 noundef 0) #19
  unreachable

69:                                               ; preds = %66
  %70 = getelementptr inbounds nuw i8, ptr %3, i64 4
  %71 = call noundef i32 @_ZN32pxrInternal_v0_24__pxrReserved__17ArchCloseAllFilesEiPKi(i32 noundef 1, ptr noundef nonnull %70)
  store i32 %71, ptr %7, align 4
  %72 = icmp eq i32 %71, -1
  br i1 %72, label %73, label %76

73:                                               ; preds = %69
  %74 = load i32, ptr %70, align 4
  %75 = call i64 @write(i32 noundef %74, ptr noundef nonnull %7, i64 noundef 4)
  call void @_exit(i32 noundef 3) #19
  unreachable

76:                                               ; preds = %69
  %77 = call i32 @chdir(ptr noundef nonnull @.str) #17
  store i32 %77, ptr %7, align 4
  %78 = icmp eq i32 %77, -1
  br i1 %78, label %79, label %82

79:                                               ; preds = %76
  %80 = load i32, ptr %70, align 4
  %81 = call i64 @write(i32 noundef %80, ptr noundef nonnull %7, i64 noundef 4)
  call void @_exit(i32 noundef 4) #19
  unreachable

82:                                               ; preds = %76
  %83 = call i32 @umask(i32 noundef 0) #17
  %84 = call i32 (ptr, i32, ...) @open(ptr noundef nonnull @.str.1, i32 noundef 0)
  %85 = call i32 (ptr, i32, ...) @open(ptr noundef nonnull @.str.1, i32 noundef 1)
  %86 = call i32 (ptr, i32, ...) @open(ptr noundef nonnull @.str.1, i32 noundef 1)
  %87 = load i32, ptr %70, align 4
  %88 = call i32 (i32, i32, ...) @fcntl(i32 noundef %87, i32 noundef 2, i64 noundef 1)
  %89 = icmp eq i32 %88, -1
  br i1 %89, label %90, label %95

90:                                               ; preds = %82
  %91 = tail call ptr @__errno_location() #18
  %92 = load i32, ptr %91, align 4
  store i32 %92, ptr %8, align 4
  %93 = load i32, ptr %70, align 4
  %94 = call i64 @write(i32 noundef %93, ptr noundef nonnull %8, i64 noundef 4)
  call void @_exit(i32 noundef 5) #19
  unreachable

95:                                               ; preds = %82
  %96 = call noundef zeroext i1 %0(ptr noundef %1)
  br i1 %96, label %102, label %97

97:                                               ; preds = %95
  %98 = tail call ptr @__errno_location() #18
  %99 = load i32, ptr %98, align 4
  store i32 %99, ptr %7, align 4
  %100 = load i32, ptr %70, align 4
  %101 = call i64 @write(i32 noundef %100, ptr noundef nonnull %7, i64 noundef 4)
  call void @_exit(i32 noundef 6) #19
  unreachable

102:                                              ; preds = %95
  call void @_exit(i32 noundef 0) #19
  unreachable

103:                                              ; preds = %2, %._crit_edge, %18
  %.0 = phi i1 [ false, %18 ], [ %38, %._crit_edge ], [ false, %2 ]
  ret i1 %.0
}